target datalayout = "e-m:e-p270:32:32-p271:32:32-p272:64:64-i64:64-i128:128-f80:128-n8:16:32:64-S128"
target triple = "x86_64-pc-linux-gnu"

%struct.WindowAggState = type { %struct.ScanState, ptr, i32, i32, ptr, ptr, ptr, ptr, ptr, i32, i32, i32, i32, i64, i64, i64, i64, ptr, i64, i64, i32, i32, ptr, ptr, i64, i64, %struct.FmgrInfo, %struct.FmgrInfo, i32, i8, i8, i8, i8, ptr, i64, i64, i64, i64, i64, ptr, ptr, ptr, ptr, i8, i8, i8, i8, i8, i8, i8, ptr, ptr, ptr, ptr, ptr, ptr }
%struct.ScanState = type { %struct.PlanState, ptr, ptr, ptr }
%struct.PlanState = type { i32, ptr, ptr, ptr, ptr, ptr, ptr, ptr, ptr, ptr, ptr, ptr, ptr, ptr, ptr, ptr, ptr, ptr, i8, ptr, ptr, ptr, ptr, ptr, i8, i8, i8, i8, i8, i8, i8, i8 }
%struct.FmgrInfo = type { ptr, i32, i16, i8, i8, i8, ptr, ptr, ptr }
%struct.WindowStatePerAggData = type { i32, i32, i32, %struct.FmgrInfo, %struct.FmgrInfo, %struct.FmgrInfo, i32, i64, i8, i64, i8, i16, i16, i16, i8, i8, i8, i32, ptr, i64, i8, i64, i8 }

; Function Attrs: nounwind uwtable
define dso_local void @ExecEndWindowAgg(ptr noundef %0) #0 {
  %2 = alloca ptr, align 8
  %3 = alloca ptr, align 8
  %4 = alloca i32, align 4
  store ptr %0, ptr %2, align 8
  call void @llvm.lifetime.start.p0(i64 8, ptr %3) #8
  call void @llvm.lifetime.start.p0(i64 4, ptr %4) #8
  %5 = load ptr, ptr %2, align 8
  %6 = getelementptr inbounds nuw %struct.WindowAggState, ptr %5, i32 0, i32 8
  %7 = load ptr, ptr %6, align 8
  %8 = icmp ne ptr %7, null
  br i1 %8, label %9, label %15

9:                                                ; preds = %1
  %10 = load ptr, ptr %2, align 8
  %11 = getelementptr inbounds nuw %struct.WindowAggState, ptr %10, i32 0, i32 8
  %12 = load ptr, ptr %11, align 8
  call void @tuplestore_end(ptr noundef %12)
  %13 = load ptr, ptr %2, align 8
  %14 = getelementptr inbounds nuw %struct.WindowAggState, ptr %13, i32 0, i32 8
  store ptr null, ptr %14, align 8
  br label %15

15:                                               ; preds = %9, %1
  %16 = load ptr, ptr %2, align 8
  call void @release_partition(ptr noundef %16)
  store i32 0, ptr %4, align 4
  br label %17

17:                                               ; preds = %46, %15
  %18 = load i32, ptr %4, align 4
  %19 = load ptr, ptr %2, align 8
  %20 = getelementptr inbounds nuw %struct.WindowAggState, ptr %19, i32 0, i32 3
  %21 = load i32, ptr %20, align 4
  %22 = icmp slt i32 %18, %21
  br i1 %22, label %23, label %49

23:                                               ; preds = %17
  %24 = load ptr, ptr %2, align 8
  %25 = getelementptr inbounds nuw %struct.WindowAggState, ptr %24, i32 0, i32 5
  %26 = load ptr, ptr %25, align 8
  %27 = load i32, ptr %4, align 4
  %28 = sext i32 %27 to i64
  %29 = getelementptr inbounds %struct.WindowStatePerAggData, ptr %26, i64 %28
  %30 = getelementptr inbounds nuw %struct.WindowStatePerAggData, ptr %29, i32 0, i32 18
  %31 = load ptr, ptr %30, align 8
  %32 = load ptr, ptr %2, align 8
  %33 = getelementptr inbounds nuw %struct.WindowAggState, ptr %32, i32 0, i32 40
  %34 = load ptr, ptr %33, align 8
  %35 = icmp ne ptr %31, %34
  br i1 %35, label %36, label %45

36:                                               ; preds = %23
  %37 = load ptr, ptr %2, align 8
  %38 = getelementptr inbounds nuw %struct.WindowAggState, ptr %37, i32 0, i32 5
  %39 = load ptr, ptr %38, align 8
  %40 = load i32, ptr %4, align 4
  %41 = sext i32 %40 to i64
  %42 = getelementptr inbounds %struct.WindowStatePerAggData, ptr %39, i64 %41
  %43 = getelementptr inbounds nuw %struct.WindowStatePerAggData, ptr %42, i32 0, i32 18
  %44 = load ptr, ptr %43, align 8
  call void @MemoryContextDelete(ptr noundef %44)
  br label %45

45:                                               ; preds = %36, %23
  br label %46

46:                                               ; preds = %45
  %47 = load i32, ptr %4, align 4
  %48 = add i32 %47, 1
  store i32 %48, ptr %4, align 4
  br label %17, !llvm.loop !12

49:                                               ; preds = %17
  %50 = load ptr, ptr %2, align 8
  %51 = getelementptr inbounds nuw %struct.WindowAggState, ptr %50, i32 0, i32 39
  %52 = load ptr, ptr %51, align 8
  call void @MemoryContextDelete(ptr noundef %52)
  %53 = load ptr, ptr %2, align 8
  %54 = getelementptr inbounds nuw %struct.WindowAggState, ptr %53, i32 0, i32 40
  %55 = load ptr, ptr %54, align 8
  call void @MemoryContextDelete(ptr noundef %55)
  %56 = load ptr, ptr %2, align 8
  %57 = getelementptr inbounds nuw %struct.WindowAggState, ptr %56, i32 0, i32 4
  %58 = load ptr, ptr %57, align 8
  call void @pfree(ptr noundef %58)
  %59 = load ptr, ptr %2, align 8
  %60 = getelementptr inbounds nuw %struct.WindowAggState, ptr %59, i32 0, i32 5
  %61 = load ptr, ptr %60, align 8
  call void @pfree(ptr noundef %61)
  %62 = load ptr, ptr %2, align 8
  %63 = getelementptr inbounds nuw %struct.PlanState, ptr %62, i32 0, i32 9
  %64 = load ptr, ptr %63, align 8
  store ptr %64, ptr %3, align 8
  %65 = load ptr, ptr %3, align 8
  call void @ExecEndNode(ptr noundef %65)
  call void @llvm.lifetime.end.p0(i64 4, ptr %4) #8
  call void @llvm.lifetime.end.p0(i64 8, ptr %3) #8
  ret void
}