; Function Attrs: nounwind uwtable
define dso_local void @ExecEndWindowAgg(ptr noundef captures(none) %0) local_unnamed_addr #0 {
  %2 = getelementptr inbounds nuw i8, ptr %0, i64 272
  %3 = load ptr, ptr %2, align 8
  %.not = icmp eq ptr %3, null
  br i1 %.not, label %5, label %4

4:                                                ; preds = %1
  tail call void @tuplestore_end(ptr noundef nonnull %3) #9
  store ptr null, ptr %2, align 8
  br label %5

5:                                                ; preds = %4, %1
  tail call fastcc void @release_partition(ptr noundef nonnull %0)
  %6 = getelementptr inbounds nuw i8, ptr %0, i64 236
  %7 = load i32, ptr %6, align 4
  %8 = icmp sgt i32 %7, 0
  br i1 %8, label %.lr.ph, label %._crit_edge

.lr.ph:                                           ; preds = %5
  %9 = getelementptr inbounds nuw i8, ptr %0, i64 248
  %10 = getelementptr inbounds nuw i8, ptr %0, i64 552
  br label %11

11:                                               ; preds = %.lr.ph, %18
  %12 = phi i32 [ %7, %.lr.ph ], [ %19, %18 ]
  %indvars.iv = phi i64 [ 0, %.lr.ph ], [ %indvars.iv.next, %18 ]
  %13 = load ptr, ptr %9, align 8
  %14 = getelementptr inbounds nuw %struct.WindowStatePerAggData, ptr %13, i64 %indvars.iv, i32 18
  %15 = load ptr, ptr %14, align 8
  %16 = load ptr, ptr %10, align 8
  %.not19 = icmp eq ptr %15, %16
  br i1 %.not19, label %18, label %17

17:                                               ; preds = %11
  tail call void @MemoryContextDelete(ptr noundef %15) #9
  %.pre = load i32, ptr %6, align 4
  br label %18

18:                                               ; preds = %11, %17
  %19 = phi i32 [ %12, %11 ], [ %.pre, %17 ]
  %indvars.iv.next = add nuw nsw i64 %indvars.iv, 1
  %20 = sext i32 %19 to i64
  %21 = icmp slt i64 %indvars.iv.next, %20
  br i1 %21, label %11, label %._crit_edge, !llvm.loop !23

._crit_edge:                                      ; preds = %18, %5
  %22 = getelementptr inbounds nuw i8, ptr %0, i64 544
  %23 = load ptr, ptr %22, align 8
  tail call void @MemoryContextDelete(ptr noundef %23) #9
  %24 = getelementptr inbounds nuw i8, ptr %0, i64 552
  %25 = load ptr, ptr %24, align 8
  tail call void @MemoryContextDelete(ptr noundef %25) #9
  %26 = getelementptr inbounds nuw i8, ptr %0, i64 240
  %27 = load ptr, ptr %26, align 8
  tail call void @pfree(ptr noundef %27) #9
  %28 = getelementptr inbounds nuw i8, ptr %0, i64 248
  %29 = load ptr, ptr %28, align 8
  tail call void @pfree(ptr noundef %29) #9
  %30 = getelementptr inbounds nuw i8, ptr %0, i64 72
  %31 = load ptr, ptr %30, align 8
  tail call void @ExecEndNode(ptr noundef %31) #9
  ret void
}